; Function Attrs: mustprogress uwtable
define noundef double @_ZNK6casadi10FiniteDiff14get_default_inEx(ptr noundef nonnull align 8 dereferenceable(1392) %0, i64 noundef %1) unnamed_addr #3 align 2 {
  %3 = getelementptr inbounds i8, ptr %0, i64 704
  %4 = tail call noundef i64 @_ZNK6casadi8Function4n_inEv(ptr noundef nonnull align 8 dereferenceable(8) %3)
  %5 = icmp sgt i64 %4, %1
  br i1 %5, label %6, label %8

6:                                                ; preds = %2
  %7 = tail call noundef double @_ZNK6casadi8Function10default_inEx(ptr noundef nonnull align 8 dereferenceable(8) %3, i64 noundef %1)
  br label %8

8:                                                ; preds = %2, %6
  %.0 = phi double [ %7, %6 ], [ 0.000000e+00, %2 ]
  ret double %.0
}